ARM GAS  C:\Users\Arold\AppData\Local\Temp\cciKFLGf.s 			page 1


   1              		.syntax unified
   2              		.cpu cortex-m3
   3              		.fpu softvfp
   4              		.eabi_attribute 20, 1
   5              		.eabi_attribute 21, 1
   6              		.eabi_attribute 23, 3
   7              		.eabi_attribute 24, 1
   8              		.eabi_attribute 25, 1
   9              		.eabi_attribute 26, 1
  10              		.eabi_attribute 30, 1
  11              		.eabi_attribute 34, 1
  12              		.eabi_attribute 18, 4
  13              		.thumb
  14              		.syntax unified
  15              		.file	"main.c"
  16              		.text
  17              	.Ltext0:
  18              		.cfi_sections	.debug_frame
  19              		.global	__aeabi_f2iz
  20              		.section	.text.my_isr_UART,"ax",%progbits
  21              		.align	2
  22              		.global	my_isr_UART
  23              		.thumb
  24              		.thumb_func
  25              		.type	my_isr_UART, %function
  26              	my_isr_UART:
  27              	.LFB69:
  28              		.file 1 "main.c"
   1:main.c        **** /* ========================================
   2:main.c        ****  *
   3:main.c        ****  * Green House Project PSoC
   4:main.c        ****  * 
   5:main.c        ****  * Author: Yameni Bakam Gleen Karel & Ndassi Fotso Harold
   6:main.c        ****  *
   7:main.c        ****  * Last version: 18.04.2022
   8:main.c        ****  * 
   9:main.c        ****  * School: Frankfurt University of Applied Sciences
  10:main.c        ****  * ========================================
  11:main.c        **** */
  12:main.c        **** #include "project.h"
  13:main.c        **** #include <stdio.h>
  14:main.c        **** #include <OneWireLab.h>
  15:main.c        **** 
  16:main.c        **** // Define and global variables
  17:main.c        **** # define RTC_slaveAddress 0x68
  18:main.c        **** # define True 1
  19:main.c        **** # define False 0
  20:main.c        **** # define Servo_First_Position 899
  21:main.c        **** 
  22:main.c        **** // Function prototypes
  23:main.c        **** void read_Room_Temp(void);
  24:main.c        **** void window_position_control(void);
  25:main.c        **** void heating_control(void);
  26:main.c        **** void real_Time_Clock(void);
  27:main.c        **** 
  28:main.c        **** // Interrupts handler prototypes
  29:main.c        **** CY_ISR_PROTO(my_isr_UART);
ARM GAS  C:\Users\Arold\AppData\Local\Temp\cciKFLGf.s 			page 2


  30:main.c        **** CY_ISR_PROTO(my_isr_TIMER);
  31:main.c        **** CY_ISR_PROTO(my_isr_PWM);
  32:main.c        **** 
  33:main.c        **** 
  34:main.c        **** volatile uint8 rtc_data[7];
  35:main.c        **** volatile uint8 room_temp = 0;
  36:main.c        **** volatile uint8 window_position_index = 0;
  37:main.c        **** volatile uint16 window_position[6] = {899, 1319, 1739, 2159, 2579, 2999};
  38:main.c        **** volatile float OneWireVal = 0.0 ;
  39:main.c        **** 
  40:main.c        **** int main(void)
  41:main.c        **** {
  42:main.c        ****     CyGlobalIntEnable; /* Enable global interrupts. */
  43:main.c        **** 
  44:main.c        ****     /* Place your initialization/startup code here (e.g. MyInst_Start()) */
  45:main.c        ****     UART_Start();
  46:main.c        ****   
  47:main.c        ****     isr_UART_StartEx(my_isr_UART);
  48:main.c        ****     
  49:main.c        ****     Timer_Start();
  50:main.c        ****     isr_Timer_StartEx(my_isr_TIMER);
  51:main.c        ****     
  52:main.c        ****     PWM_Start();
  53:main.c        ****     isr_PWM_StartEx(my_isr_PWM);
  54:main.c        ****     
  55:main.c        ****     //
  56:main.c        ****     I2C_RTC_Start();
  57:main.c        ****     
  58:main.c        ****     OneWireStart();
  59:main.c        ****     
  60:main.c        ****     // test transmition to putty
  61:main.c        ****     char projectName[50] = "***Green House Project*** \n\r";
  62:main.c        ****       UART_PutString(projectName);
  63:main.c        ****    
  64:main.c        ****     
  65:main.c        ****     for(;;)
  66:main.c        ****     {
  67:main.c        ****         /* Place your application code here. */
  68:main.c        ****        
  69:main.c        ****     }
  70:main.c        **** }
  71:main.c        **** 
  72:main.c        **** void heating_control(void)
  73:main.c        **** {
  74:main.c        ****     if (room_temp < 5)
  75:main.c        ****     {
  76:main.c        ****         LED_Heating_Write(True);    // Turns on extra heating if temperature falls below +5C
  77:main.c        ****     }
  78:main.c        ****     else if (room_temp > 10)
  79:main.c        ****     {
  80:main.c        ****         LED_Heating_Write(False);   //  Turns off extra heating if temperature rises above +10C
  81:main.c        ****     }
  82:main.c        **** }
  83:main.c        **** 
  84:main.c        **** void window_position_control(void)
  85:main.c        **** {
  86:main.c        ****     if (room_temp>=25)
ARM GAS  C:\Users\Arold\AppData\Local\Temp\cciKFLGf.s 			page 3


  87:main.c        ****     {
  88:main.c        ****         window_position_index = 5;    // Fully opened
  89:main.c        ****     }
  90:main.c        ****     else if (room_temp>=24)
  91:main.c        ****     {
  92:main.c        ****         window_position_index = 4;
  93:main.c        ****     }
  94:main.c        ****     else if (room_temp>=23)
  95:main.c        ****     {
  96:main.c        ****         window_position_index = 3;
  97:main.c        ****     }
  98:main.c        ****     else if (room_temp>=22)
  99:main.c        ****     {
 100:main.c        ****         window_position_index = 2;
 101:main.c        ****     }
 102:main.c        ****     else if (room_temp>=21)
 103:main.c        ****     {
 104:main.c        ****         window_position_index = 1;
 105:main.c        ****     }
 106:main.c        ****     else
 107:main.c        ****     {
 108:main.c        ****         window_position_index = 0;    // Fully closed
 109:main.c        ****     }
 110:main.c        **** }
 111:main.c        **** void read_Room_Temp(void)
 112:main.c        **** {
 113:main.c        ****     
 114:main.c        ****     
 115:main.c        ****     // ***To-Do**
 116:main.c        ****     //  Read, Calculate and convert the tempearture
 117:main.c        ****     //
 118:main.c        ****     
 119:main.c        ****     window_position_control();
 120:main.c        ****     
 121:main.c        ****     heating_control();
 122:main.c        ****     
 123:main.c        **** }
 124:main.c        **** 
 125:main.c        **** 
 126:main.c        **** void real_Time_Clock(void)
 127:main.c        **** {
 128:main.c        ****     uint8 i, result = 0;
 129:main.c        ****     char debug[50];
 130:main.c        ****     
 131:main.c        ****     // read the real time clock module data from the i2c master
 132:main.c        ****     do
 133:main.c        ****     {
 134:main.c        ****         result = I2C_RTC_MasterSendStart(RTC_slaveAddress, I2C_RTC_WRITE_XFER_MODE);
 135:main.c        ****         sprintf(debug,"Endless loop: %d\r\n" , result);
 136:main.c        ****         UART_PutString(debug);
 137:main.c        ****     }while(result!=I2C_RTC_MSTR_NO_ERROR);
 138:main.c        ****     
 139:main.c        ****     result = I2C_RTC_MasterWriteByte(0x00);
 140:main.c        ****     
 141:main.c        ****     result = I2C_RTC_MasterSendRestart(RTC_slaveAddress, I2C_RTC_WRITE_XFER_MODE);
 142:main.c        ****     
 143:main.c        ****     for(i=0; i<6; i++)
ARM GAS  C:\Users\Arold\AppData\Local\Temp\cciKFLGf.s 			page 4


 144:main.c        ****     {
 145:main.c        ****         rtc_data[i] = I2C_RTC_MasterReadByte(I2C_RTC_ACK_DATA);
 146:main.c        ****     }
 147:main.c        ****     
 148:main.c        ****     rtc_data[6] = I2C_RTC_MasterReadByte(I2C_RTC_NAK_DATA);
 149:main.c        ****     
 150:main.c        ****     I2C_RTC_MasterSendStop();
 151:main.c        ****     
 152:main.c        ****     // send the result to the commad window
 153:main.c        ****     char testData[20];
 154:main.c        ****     for(i=0; i<7; i++)
 155:main.c        ****     {
 156:main.c        ****         sprintf(testData,"Byte %d : %d\r\n" ,i , rtc_data[i]);
 157:main.c        ****         UART_PutString(testData);
 158:main.c        ****     }
 159:main.c        ****     //rtc_data[i]>>4&0x07
 160:main.c        **** }
 161:main.c        **** 
 162:main.c        **** 
 163:main.c        **** CY_ISR(my_isr_UART)
 164:main.c        **** {   
  29              		.loc 1 164 0
  30              		.cfi_startproc
  31              		@ args = 0, pretend = 0, frame = 32
  32              		@ frame_needed = 0, uses_anonymous_args = 0
  33 0000 10B5     		push	{r4, lr}
  34              		.cfi_def_cfa_offset 8
  35              		.cfi_offset 4, -8
  36              		.cfi_offset 14, -4
  37 0002 88B0     		sub	sp, sp, #32
  38              		.cfi_def_cfa_offset 40
 165:main.c        ****     // Testing start
 166:main.c        ****    // real_Time_Clock();
 167:main.c        ****     OneWireVal = OneWireRead_data();
  39              		.loc 1 167 0
  40 0004 FFF7FEFF 		bl	OneWireRead_data
  41              	.LVL0:
  42 0008 274B     		ldr	r3, .L16
  43 000a 1860     		str	r0, [r3]	@ float
 168:main.c        ****     char testData[32];
 169:main.c        ****     
 170:main.c        ****     sprintf(testData," Temp One wire = %u \r\n" ,(int)OneWireVal);
  44              		.loc 1 170 0
  45 000c 1868     		ldr	r0, [r3]	@ float
  46 000e FFF7FEFF 		bl	__aeabi_f2iz
  47              	.LVL1:
  48 0012 0246     		mov	r2, r0
  49 0014 2549     		ldr	r1, .L16+4
  50 0016 6846     		mov	r0, sp
  51 0018 FFF7FEFF 		bl	sprintf
  52              	.LVL2:
 171:main.c        ****     
 172:main.c        ****     UART_PutString(testData);
  53              		.loc 1 172 0
  54 001c 6846     		mov	r0, sp
  55 001e FFF7FEFF 		bl	UART_PutString
  56              	.LVL3:
ARM GAS  C:\Users\Arold\AppData\Local\Temp\cciKFLGf.s 			page 5


 173:main.c        ****     
 174:main.c        ****     
 175:main.c        ****     // Testing ends
 176:main.c        ****     
 177:main.c        ****     // Terminal Interface Commande
 178:main.c        ****     static uint8 old_char = 0;
 179:main.c        ****     uint8 current_char;
 180:main.c        ****     current_char = UART_GetChar();
  57              		.loc 1 180 0
  58 0022 FFF7FEFF 		bl	UART_GetChar
  59              	.LVL4:
  60 0026 0446     		mov	r4, r0
  61              	.LVL5:
 181:main.c        ****     
 182:main.c        ****     if(current_char == 't' || current_char == 'T')
  62              		.loc 1 182 0
  63 0028 7428     		cmp	r0, #116
  64 002a 01D0     		beq	.L2
  65              		.loc 1 182 0 is_stmt 0 discriminator 1
  66 002c 5428     		cmp	r0, #84
  67 002e 03D1     		bne	.L3
  68              	.L2:
 183:main.c        ****     {
 184:main.c        ****         // Setting the current time for the device
 185:main.c        ****         UART_PutString("Setting the current time for the device\r\n");  
  69              		.loc 1 185 0 is_stmt 1
  70 0030 1F48     		ldr	r0, .L16+8
  71              	.LVL6:
  72 0032 FFF7FEFF 		bl	UART_PutString
  73              	.LVL7:
  74 0036 2EE0     		b	.L4
  75              	.LVL8:
  76              	.L3:
 186:main.c        ****     }
 187:main.c        ****     else if(current_char == 'd' || current_char == 'D')
  77              		.loc 1 187 0
  78 0038 6428     		cmp	r0, #100
  79 003a 01D0     		beq	.L5
  80              		.loc 1 187 0 is_stmt 0 discriminator 1
  81 003c 4428     		cmp	r0, #68
  82 003e 03D1     		bne	.L6
  83              	.L5:
 188:main.c        ****     {
 189:main.c        ****         // Setting the current day for the device
 190:main.c        ****         UART_PutString("Setting the current day for the device\r\n");  
  84              		.loc 1 190 0 is_stmt 1
  85 0040 1C48     		ldr	r0, .L16+12
  86              	.LVL9:
  87 0042 FFF7FEFF 		bl	UART_PutString
  88              	.LVL10:
  89 0046 26E0     		b	.L4
  90              	.LVL11:
  91              	.L6:
 191:main.c        ****     }
 192:main.c        ****     else if(current_char == '?')
  92              		.loc 1 192 0
  93 0048 3F28     		cmp	r0, #63
ARM GAS  C:\Users\Arold\AppData\Local\Temp\cciKFLGf.s 			page 6


  94 004a 15D1     		bne	.L7
 193:main.c        ****     {
 194:main.c        ****         if(old_char == 't' || old_char == 'T')
  95              		.loc 1 194 0
  96 004c 164B     		ldr	r3, .L16
  97 004e 1B79     		ldrb	r3, [r3, #4]	@ zero_extendqisi2
  98 0050 742B     		cmp	r3, #116
  99 0052 01D0     		beq	.L8
 100              		.loc 1 194 0 is_stmt 0 discriminator 1
 101 0054 542B     		cmp	r3, #84
 102 0056 03D1     		bne	.L9
 103              	.L8:
 195:main.c        ****         {
 196:main.c        ****             // Sending out the current device time
 197:main.c        ****             UART_PutString("Sending out the current device time\r\n");
 104              		.loc 1 197 0 is_stmt 1
 105 0058 1748     		ldr	r0, .L16+16
 106              	.LVL12:
 107 005a FFF7FEFF 		bl	UART_PutString
 108              	.LVL13:
 109 005e 1AE0     		b	.L4
 110              	.LVL14:
 111              	.L9:
 198:main.c        ****         }
 199:main.c        ****         else if(old_char == 'd' || old_char == 'D')
 112              		.loc 1 199 0
 113 0060 642B     		cmp	r3, #100
 114 0062 01D0     		beq	.L10
 115              		.loc 1 199 0 is_stmt 0 discriminator 1
 116 0064 442B     		cmp	r3, #68
 117 0066 03D1     		bne	.L11
 118              	.L10:
 200:main.c        ****         {
 201:main.c        ****             // Sending out the current device day
 202:main.c        ****             UART_PutString("Sending out the current device day\r\n");
 119              		.loc 1 202 0 is_stmt 1
 120 0068 1448     		ldr	r0, .L16+20
 121              	.LVL15:
 122 006a FFF7FEFF 		bl	UART_PutString
 123              	.LVL16:
 124 006e 12E0     		b	.L4
 125              	.LVL17:
 126              	.L11:
 203:main.c        ****         }
 204:main.c        ****         else
 205:main.c        ****         {
 206:main.c        ****             // Sending out indentification information 
 207:main.c        ****             UART_PutString("GreenHouse controller 0.1, developed by Yameni Gleen and Ndassi Harold\
 127              		.loc 1 207 0
 128 0070 1348     		ldr	r0, .L16+24
 129              	.LVL18:
 130 0072 FFF7FEFF 		bl	UART_PutString
 131              	.LVL19:
 132 0076 0EE0     		b	.L4
 133              	.LVL20:
 134              	.L7:
 208:main.c        ****         }
ARM GAS  C:\Users\Arold\AppData\Local\Temp\cciKFLGf.s 			page 7


 209:main.c        ****     }
 210:main.c        ****      else if(current_char == 'a' || current_char == 'A')
 135              		.loc 1 210 0
 136 0078 6128     		cmp	r0, #97
 137 007a 01D0     		beq	.L12
 138              		.loc 1 210 0 is_stmt 0 discriminator 1
 139 007c 4128     		cmp	r0, #65
 140 007e 03D1     		bne	.L13
 141              	.L12:
 211:main.c        ****     {
 212:main.c        ****         // Sending out all saved data in JSON format: date, time, all temperatures, air humidity, s
 213:main.c        ****         UART_PutString("Sending all saved data...\r\n");
 142              		.loc 1 213 0 is_stmt 1
 143 0080 1048     		ldr	r0, .L16+28
 144              	.LVL21:
 145 0082 FFF7FEFF 		bl	UART_PutString
 146              	.LVL22:
 147 0086 06E0     		b	.L4
 148              	.LVL23:
 149              	.L13:
 214:main.c        ****     }
 215:main.c        ****      else if(current_char == 'c' || current_char == 'C')
 150              		.loc 1 215 0
 151 0088 6328     		cmp	r0, #99
 152 008a 01D0     		beq	.L14
 153              		.loc 1 215 0 is_stmt 0 discriminator 1
 154 008c 4328     		cmp	r0, #67
 155 008e 02D1     		bne	.L4
 156              	.L14:
 216:main.c        ****     {
 217:main.c        ****         // clearing the device data logging memory
 218:main.c        ****         UART_PutString("Clearing the logging memory...\r\n");
 157              		.loc 1 218 0 is_stmt 1
 158 0090 0D48     		ldr	r0, .L16+32
 159              	.LVL24:
 160 0092 FFF7FEFF 		bl	UART_PutString
 161              	.LVL25:
 162              	.L4:
 219:main.c        ****     }
 220:main.c        ****     
 221:main.c        ****     old_char = current_char;
 163              		.loc 1 221 0
 164 0096 044B     		ldr	r3, .L16
 165 0098 1C71     		strb	r4, [r3, #4]
 222:main.c        ****     // Clearing the Interrupt bit and the Receive register
 223:main.c        ****     UART_ClearRxBuffer();
 166              		.loc 1 223 0
 167 009a FFF7FEFF 		bl	UART_ClearRxBuffer
 168              	.LVL26:
 224:main.c        ****     isr_UART_ClearPending();
 169              		.loc 1 224 0
 170 009e FFF7FEFF 		bl	isr_UART_ClearPending
 171              	.LVL27:
 225:main.c        ****     
 226:main.c        **** }
 172              		.loc 1 226 0
 173 00a2 08B0     		add	sp, sp, #32
ARM GAS  C:\Users\Arold\AppData\Local\Temp\cciKFLGf.s 			page 8


 174              		.cfi_def_cfa_offset 8
 175              		@ sp needed
 176 00a4 10BD     		pop	{r4, pc}
 177              	.L17:
 178 00a6 00BF     		.align	2
 179              	.L16:
 180 00a8 00000000 		.word	.LANCHOR0
 181 00ac 00000000 		.word	.LC0
 182 00b0 18000000 		.word	.LC1
 183 00b4 44000000 		.word	.LC2
 184 00b8 70000000 		.word	.LC3
 185 00bc 98000000 		.word	.LC4
 186 00c0 C0000000 		.word	.LC5
 187 00c4 0C010000 		.word	.LC6
 188 00c8 28010000 		.word	.LC7
 189              		.cfi_endproc
 190              	.LFE69:
 191              		.size	my_isr_UART, .-my_isr_UART
 192              		.section	.text.my_isr_PWM,"ax",%progbits
 193              		.align	2
 194              		.global	my_isr_PWM
 195              		.thumb
 196              		.thumb_func
 197              		.type	my_isr_PWM, %function
 198              	my_isr_PWM:
 199              	.LFB71:
 227:main.c        **** 
 228:main.c        **** CY_ISR(my_isr_TIMER)
 229:main.c        **** {
 230:main.c        ****     
 231:main.c        ****     read_Room_Temp();               // Read the temperature every second
 232:main.c        ****     Timer_ReadStatusRegister();     // Clear the interrupt flag
 233:main.c        **** }
 234:main.c        **** 
 235:main.c        **** CY_ISR(my_isr_PWM)
 236:main.c        **** {
 200              		.loc 1 236 0
 201              		.cfi_startproc
 202              		@ args = 0, pretend = 0, frame = 0
 203              		@ frame_needed = 0, uses_anonymous_args = 0
 204 0000 08B5     		push	{r3, lr}
 205              		.cfi_def_cfa_offset 8
 206              		.cfi_offset 3, -8
 207              		.cfi_offset 14, -4
 237:main.c        ****     static uint16 actualPosition = Servo_First_Position;    // actual position of the Servo Motor
 238:main.c        ****     
 239:main.c        ****     if (actualPosition > window_position[window_position_index]) actualPosition -= 1; // smooth the
 208              		.loc 1 239 0
 209 0002 104B     		ldr	r3, .L22
 210 0004 5B79     		ldrb	r3, [r3, #5]	@ zero_extendqisi2
 211 0006 DBB2     		uxtb	r3, r3
 212 0008 0F4A     		ldr	r2, .L22+4
 213 000a 32F81330 		ldrh	r3, [r2, r3, lsl #1]
 214 000e 9BB2     		uxth	r3, r3
 215 0010 9289     		ldrh	r2, [r2, #12]
 216 0012 9342     		cmp	r3, r2
 217 0014 02D2     		bcs	.L19
ARM GAS  C:\Users\Arold\AppData\Local\Temp\cciKFLGf.s 			page 9


 218              		.loc 1 239 0 is_stmt 0 discriminator 1
 219 0016 013A     		subs	r2, r2, #1
 220 0018 0B4B     		ldr	r3, .L22+4
 221 001a 9A81     		strh	r2, [r3, #12]	@ movhi
 222              	.L19:
 240:main.c        ****     if (actualPosition < window_position[window_position_index]) actualPosition += 1;
 223              		.loc 1 240 0 is_stmt 1
 224 001c 094B     		ldr	r3, .L22
 225 001e 5B79     		ldrb	r3, [r3, #5]	@ zero_extendqisi2
 226 0020 DBB2     		uxtb	r3, r3
 227 0022 094A     		ldr	r2, .L22+4
 228 0024 32F81330 		ldrh	r3, [r2, r3, lsl #1]
 229 0028 9BB2     		uxth	r3, r3
 230 002a 9289     		ldrh	r2, [r2, #12]
 231 002c 9342     		cmp	r3, r2
 232 002e 02D9     		bls	.L20
 233              		.loc 1 240 0 is_stmt 0 discriminator 1
 234 0030 0132     		adds	r2, r2, #1
 235 0032 054B     		ldr	r3, .L22+4
 236 0034 9A81     		strh	r2, [r3, #12]	@ movhi
 237              	.L20:
 241:main.c        ****     
 242:main.c        ****     PWM_WriteCompare(actualPosition);   // Move the Servo to the desired position
 238              		.loc 1 242 0 is_stmt 1
 239 0036 044B     		ldr	r3, .L22+4
 240 0038 9889     		ldrh	r0, [r3, #12]
 241 003a FFF7FEFF 		bl	PWM_WriteCompare
 242              	.LVL28:
 243:main.c        ****     
 244:main.c        ****     PWM_ReadStatusRegister();           // Clear the interrupt flag
 243              		.loc 1 244 0
 244 003e FFF7FEFF 		bl	PWM_ReadStatusRegister
 245              	.LVL29:
 246 0042 08BD     		pop	{r3, pc}
 247              	.L23:
 248              		.align	2
 249              	.L22:
 250 0044 00000000 		.word	.LANCHOR0
 251 0048 00000000 		.word	.LANCHOR1
 252              		.cfi_endproc
 253              	.LFE71:
 254              		.size	my_isr_PWM, .-my_isr_PWM
 255              		.section	.text.main,"ax",%progbits
 256              		.align	2
 257              		.global	main
 258              		.thumb
 259              		.thumb_func
 260              		.type	main, %function
 261              	main:
 262              	.LFB64:
  41:main.c        ****     CyGlobalIntEnable; /* Enable global interrupts. */
 263              		.loc 1 41 0
 264              		.cfi_startproc
 265              		@ args = 0, pretend = 0, frame = 56
 266              		@ frame_needed = 0, uses_anonymous_args = 0
 267 0000 30B5     		push	{r4, r5, lr}
 268              		.cfi_def_cfa_offset 12
ARM GAS  C:\Users\Arold\AppData\Local\Temp\cciKFLGf.s 			page 10


 269              		.cfi_offset 4, -12
 270              		.cfi_offset 5, -8
 271              		.cfi_offset 14, -4
 272 0002 8FB0     		sub	sp, sp, #60
 273              		.cfi_def_cfa_offset 72
  42:main.c        **** 
 274              		.loc 1 42 0
 275              		.syntax unified
 276              	@ 42 "main.c" 1
 277 0004 62B6     		CPSIE   i
 278              	@ 0 "" 2
  45:main.c        ****   
 279              		.loc 1 45 0
 280              		.thumb
 281              		.syntax unified
 282 0006 FFF7FEFF 		bl	UART_Start
 283              	.LVL30:
  47:main.c        ****     
 284              		.loc 1 47 0
 285 000a 1548     		ldr	r0, .L27
 286 000c FFF7FEFF 		bl	isr_UART_StartEx
 287              	.LVL31:
  49:main.c        ****     isr_Timer_StartEx(my_isr_TIMER);
 288              		.loc 1 49 0
 289 0010 FFF7FEFF 		bl	Timer_Start
 290              	.LVL32:
  50:main.c        ****     
 291              		.loc 1 50 0
 292 0014 1348     		ldr	r0, .L27+4
 293 0016 FFF7FEFF 		bl	isr_Timer_StartEx
 294              	.LVL33:
  52:main.c        ****     isr_PWM_StartEx(my_isr_PWM);
 295              		.loc 1 52 0
 296 001a FFF7FEFF 		bl	PWM_Start
 297              	.LVL34:
  53:main.c        ****     
 298              		.loc 1 53 0
 299 001e 1248     		ldr	r0, .L27+8
 300 0020 FFF7FEFF 		bl	isr_PWM_StartEx
 301              	.LVL35:
  56:main.c        ****     
 302              		.loc 1 56 0
 303 0024 FFF7FEFF 		bl	I2C_RTC_Start
 304              	.LVL36:
  58:main.c        ****     
 305              		.loc 1 58 0
 306 0028 FFF7FEFF 		bl	OneWireStart
 307              	.LVL37:
  61:main.c        ****       UART_PutString(projectName);
 308              		.loc 1 61 0
 309 002c 01AC     		add	r4, sp, #4
 310 002e 0F4D     		ldr	r5, .L27+12
 311 0030 0FCD     		ldmia	r5!, {r0, r1, r2, r3}
 312 0032 0FC4     		stmia	r4!, {r0, r1, r2, r3}
 313 0034 95E80F00 		ldmia	r5, {r0, r1, r2, r3}
 314 0038 07C4     		stmia	r4!, {r0, r1, r2}
 315 003a 2370     		strb	r3, [r4]
ARM GAS  C:\Users\Arold\AppData\Local\Temp\cciKFLGf.s 			page 11


 316 003c 0023     		movs	r3, #0
 317 003e CDF82130 		str	r3, [sp, #33]	@ unaligned
 318 0042 CDF82530 		str	r3, [sp, #37]	@ unaligned
 319 0046 CDF82930 		str	r3, [sp, #41]	@ unaligned
 320 004a CDF82D30 		str	r3, [sp, #45]	@ unaligned
 321 004e CDF83130 		str	r3, [sp, #49]	@ unaligned
 322 0052 8DF83530 		strb	r3, [sp, #53]
  62:main.c        ****    
 323              		.loc 1 62 0
 324 0056 01A8     		add	r0, sp, #4
 325 0058 FFF7FEFF 		bl	UART_PutString
 326              	.LVL38:
 327              	.L25:
 328 005c FEE7     		b	.L25
 329              	.L28:
 330 005e 00BF     		.align	2
 331              	.L27:
 332 0060 00000000 		.word	my_isr_UART
 333 0064 00000000 		.word	my_isr_TIMER
 334 0068 00000000 		.word	my_isr_PWM
 335 006c 00000000 		.word	.LANCHOR2
 336              		.cfi_endproc
 337              	.LFE64:
 338              		.size	main, .-main
 339              		.section	.text.heating_control,"ax",%progbits
 340              		.align	2
 341              		.global	heating_control
 342              		.thumb
 343              		.thumb_func
 344              		.type	heating_control, %function
 345              	heating_control:
 346              	.LFB65:
  73:main.c        ****     if (room_temp < 5)
 347              		.loc 1 73 0
 348              		.cfi_startproc
 349              		@ args = 0, pretend = 0, frame = 0
 350              		@ frame_needed = 0, uses_anonymous_args = 0
 351 0000 08B5     		push	{r3, lr}
 352              		.cfi_def_cfa_offset 8
 353              		.cfi_offset 3, -8
 354              		.cfi_offset 14, -4
  74:main.c        ****     {
 355              		.loc 1 74 0
 356 0002 094B     		ldr	r3, .L33
 357 0004 9B79     		ldrb	r3, [r3, #6]	@ zero_extendqisi2
 358 0006 DBB2     		uxtb	r3, r3
 359 0008 042B     		cmp	r3, #4
 360 000a 03D8     		bhi	.L30
  76:main.c        ****     }
 361              		.loc 1 76 0
 362 000c 0120     		movs	r0, #1
 363 000e FFF7FEFF 		bl	LED_Heating_Write
 364              	.LVL39:
 365 0012 08BD     		pop	{r3, pc}
 366              	.L30:
  78:main.c        ****     {
 367              		.loc 1 78 0
ARM GAS  C:\Users\Arold\AppData\Local\Temp\cciKFLGf.s 			page 12


 368 0014 044B     		ldr	r3, .L33
 369 0016 9B79     		ldrb	r3, [r3, #6]	@ zero_extendqisi2
 370 0018 DBB2     		uxtb	r3, r3
 371 001a 0A2B     		cmp	r3, #10
 372 001c 02D9     		bls	.L29
  80:main.c        ****     }
 373              		.loc 1 80 0
 374 001e 0020     		movs	r0, #0
 375 0020 FFF7FEFF 		bl	LED_Heating_Write
 376              	.LVL40:
 377              	.L29:
 378 0024 08BD     		pop	{r3, pc}
 379              	.L34:
 380 0026 00BF     		.align	2
 381              	.L33:
 382 0028 00000000 		.word	.LANCHOR0
 383              		.cfi_endproc
 384              	.LFE65:
 385              		.size	heating_control, .-heating_control
 386              		.section	.text.window_position_control,"ax",%progbits
 387              		.align	2
 388              		.global	window_position_control
 389              		.thumb
 390              		.thumb_func
 391              		.type	window_position_control, %function
 392              	window_position_control:
 393              	.LFB66:
  85:main.c        ****     if (room_temp>=25)
 394              		.loc 1 85 0
 395              		.cfi_startproc
 396              		@ args = 0, pretend = 0, frame = 0
 397              		@ frame_needed = 0, uses_anonymous_args = 0
 398              		@ link register save eliminated.
  86:main.c        ****     {
 399              		.loc 1 86 0
 400 0000 184B     		ldr	r3, .L42
 401 0002 9B79     		ldrb	r3, [r3, #6]	@ zero_extendqisi2
 402 0004 DBB2     		uxtb	r3, r3
 403 0006 182B     		cmp	r3, #24
 404 0008 03D9     		bls	.L36
  88:main.c        ****     }
 405              		.loc 1 88 0
 406 000a 0522     		movs	r2, #5
 407 000c 154B     		ldr	r3, .L42
 408 000e 5A71     		strb	r2, [r3, #5]
 409 0010 7047     		bx	lr
 410              	.L36:
  90:main.c        ****     {
 411              		.loc 1 90 0
 412 0012 144B     		ldr	r3, .L42
 413 0014 9B79     		ldrb	r3, [r3, #6]	@ zero_extendqisi2
 414 0016 DBB2     		uxtb	r3, r3
 415 0018 172B     		cmp	r3, #23
 416 001a 03D9     		bls	.L38
  92:main.c        ****     }
 417              		.loc 1 92 0
 418 001c 0422     		movs	r2, #4
ARM GAS  C:\Users\Arold\AppData\Local\Temp\cciKFLGf.s 			page 13


 419 001e 114B     		ldr	r3, .L42
 420 0020 5A71     		strb	r2, [r3, #5]
 421 0022 7047     		bx	lr
 422              	.L38:
  94:main.c        ****     {
 423              		.loc 1 94 0
 424 0024 0F4B     		ldr	r3, .L42
 425 0026 9B79     		ldrb	r3, [r3, #6]	@ zero_extendqisi2
 426 0028 DBB2     		uxtb	r3, r3
 427 002a 162B     		cmp	r3, #22
 428 002c 03D9     		bls	.L39
  96:main.c        ****     }
 429              		.loc 1 96 0
 430 002e 0322     		movs	r2, #3
 431 0030 0C4B     		ldr	r3, .L42
 432 0032 5A71     		strb	r2, [r3, #5]
 433 0034 7047     		bx	lr
 434              	.L39:
  98:main.c        ****     {
 435              		.loc 1 98 0
 436 0036 0B4B     		ldr	r3, .L42
 437 0038 9B79     		ldrb	r3, [r3, #6]	@ zero_extendqisi2
 438 003a DBB2     		uxtb	r3, r3
 439 003c 152B     		cmp	r3, #21
 440 003e 03D9     		bls	.L40
 100:main.c        ****     }
 441              		.loc 1 100 0
 442 0040 0222     		movs	r2, #2
 443 0042 084B     		ldr	r3, .L42
 444 0044 5A71     		strb	r2, [r3, #5]
 445 0046 7047     		bx	lr
 446              	.L40:
 102:main.c        ****     {
 447              		.loc 1 102 0
 448 0048 064B     		ldr	r3, .L42
 449 004a 9B79     		ldrb	r3, [r3, #6]	@ zero_extendqisi2
 450 004c DBB2     		uxtb	r3, r3
 451 004e 142B     		cmp	r3, #20
 452 0050 03D9     		bls	.L41
 104:main.c        ****     }
 453              		.loc 1 104 0
 454 0052 0122     		movs	r2, #1
 455 0054 034B     		ldr	r3, .L42
 456 0056 5A71     		strb	r2, [r3, #5]
 457 0058 7047     		bx	lr
 458              	.L41:
 108:main.c        ****     }
 459              		.loc 1 108 0
 460 005a 0022     		movs	r2, #0
 461 005c 014B     		ldr	r3, .L42
 462 005e 5A71     		strb	r2, [r3, #5]
 463 0060 7047     		bx	lr
 464              	.L43:
 465 0062 00BF     		.align	2
 466              	.L42:
 467 0064 00000000 		.word	.LANCHOR0
 468              		.cfi_endproc
ARM GAS  C:\Users\Arold\AppData\Local\Temp\cciKFLGf.s 			page 14


 469              	.LFE66:
 470              		.size	window_position_control, .-window_position_control
 471              		.section	.text.read_Room_Temp,"ax",%progbits
 472              		.align	2
 473              		.global	read_Room_Temp
 474              		.thumb
 475              		.thumb_func
 476              		.type	read_Room_Temp, %function
 477              	read_Room_Temp:
 478              	.LFB67:
 112:main.c        ****     
 479              		.loc 1 112 0
 480              		.cfi_startproc
 481              		@ args = 0, pretend = 0, frame = 0
 482              		@ frame_needed = 0, uses_anonymous_args = 0
 483 0000 08B5     		push	{r3, lr}
 484              		.cfi_def_cfa_offset 8
 485              		.cfi_offset 3, -8
 486              		.cfi_offset 14, -4
 119:main.c        ****     
 487              		.loc 1 119 0
 488 0002 FFF7FEFF 		bl	window_position_control
 489              	.LVL41:
 121:main.c        ****     
 490              		.loc 1 121 0
 491 0006 FFF7FEFF 		bl	heating_control
 492              	.LVL42:
 493 000a 08BD     		pop	{r3, pc}
 494              		.cfi_endproc
 495              	.LFE67:
 496              		.size	read_Room_Temp, .-read_Room_Temp
 497              		.section	.text.my_isr_TIMER,"ax",%progbits
 498              		.align	2
 499              		.global	my_isr_TIMER
 500              		.thumb
 501              		.thumb_func
 502              		.type	my_isr_TIMER, %function
 503              	my_isr_TIMER:
 504              	.LFB70:
 229:main.c        ****     
 505              		.loc 1 229 0
 506              		.cfi_startproc
 507              		@ args = 0, pretend = 0, frame = 0
 508              		@ frame_needed = 0, uses_anonymous_args = 0
 509 0000 08B5     		push	{r3, lr}
 510              		.cfi_def_cfa_offset 8
 511              		.cfi_offset 3, -8
 512              		.cfi_offset 14, -4
 231:main.c        ****     Timer_ReadStatusRegister();     // Clear the interrupt flag
 513              		.loc 1 231 0
 514 0002 FFF7FEFF 		bl	read_Room_Temp
 515              	.LVL43:
 232:main.c        **** }
 516              		.loc 1 232 0
 517 0006 FFF7FEFF 		bl	Timer_ReadStatusRegister
 518              	.LVL44:
 519 000a 08BD     		pop	{r3, pc}
ARM GAS  C:\Users\Arold\AppData\Local\Temp\cciKFLGf.s 			page 15


 520              		.cfi_endproc
 521              	.LFE70:
 522              		.size	my_isr_TIMER, .-my_isr_TIMER
 523              		.section	.text.real_Time_Clock,"ax",%progbits
 524              		.align	2
 525              		.global	real_Time_Clock
 526              		.thumb
 527              		.thumb_func
 528              		.type	real_Time_Clock, %function
 529              	real_Time_Clock:
 530              	.LFB68:
 127:main.c        ****     uint8 i, result = 0;
 531              		.loc 1 127 0
 532              		.cfi_startproc
 533              		@ args = 0, pretend = 0, frame = 72
 534              		@ frame_needed = 0, uses_anonymous_args = 0
 535 0000 10B5     		push	{r4, lr}
 536              		.cfi_def_cfa_offset 8
 537              		.cfi_offset 4, -8
 538              		.cfi_offset 14, -4
 539 0002 92B0     		sub	sp, sp, #72
 540              		.cfi_def_cfa_offset 80
 541              	.L49:
 134:main.c        ****         sprintf(debug,"Endless loop: %d\r\n" , result);
 542              		.loc 1 134 0 discriminator 1
 543 0004 0021     		movs	r1, #0
 544 0006 6820     		movs	r0, #104
 545 0008 FFF7FEFF 		bl	I2C_RTC_MasterSendStart
 546              	.LVL45:
 547 000c 0446     		mov	r4, r0
 548              	.LVL46:
 135:main.c        ****         UART_PutString(debug);
 549              		.loc 1 135 0 discriminator 1
 550 000e 0246     		mov	r2, r0
 551 0010 1949     		ldr	r1, .L55
 552 0012 05A8     		add	r0, sp, #20
 553              	.LVL47:
 554 0014 FFF7FEFF 		bl	sprintf
 555              	.LVL48:
 136:main.c        ****     }while(result!=I2C_RTC_MSTR_NO_ERROR);
 556              		.loc 1 136 0 discriminator 1
 557 0018 05A8     		add	r0, sp, #20
 558 001a FFF7FEFF 		bl	UART_PutString
 559              	.LVL49:
 137:main.c        ****     
 560              		.loc 1 137 0 discriminator 1
 561 001e 002C     		cmp	r4, #0
 562 0020 F0D1     		bne	.L49
 139:main.c        ****     
 563              		.loc 1 139 0
 564 0022 0020     		movs	r0, #0
 565 0024 FFF7FEFF 		bl	I2C_RTC_MasterWriteByte
 566              	.LVL50:
 141:main.c        ****     
 567              		.loc 1 141 0
 568 0028 0021     		movs	r1, #0
 569 002a 6820     		movs	r0, #104
ARM GAS  C:\Users\Arold\AppData\Local\Temp\cciKFLGf.s 			page 16


 570 002c FFF7FEFF 		bl	I2C_RTC_MasterSendRestart
 571              	.LVL51:
 143:main.c        ****     {
 572              		.loc 1 143 0
 573 0030 06E0     		b	.L50
 574              	.LVL52:
 575              	.L51:
 145:main.c        ****     }
 576              		.loc 1 145 0 discriminator 3
 577 0032 0120     		movs	r0, #1
 578 0034 FFF7FEFF 		bl	I2C_RTC_MasterReadByte
 579              	.LVL53:
 580 0038 104B     		ldr	r3, .L55+4
 581 003a 1855     		strb	r0, [r3, r4]
 143:main.c        ****     {
 582              		.loc 1 143 0 discriminator 3
 583 003c 0134     		adds	r4, r4, #1
 584              	.LVL54:
 585 003e E4B2     		uxtb	r4, r4
 586              	.LVL55:
 587              	.L50:
 143:main.c        ****     {
 588              		.loc 1 143 0 is_stmt 0 discriminator 1
 589 0040 052C     		cmp	r4, #5
 590 0042 F6D9     		bls	.L51
 148:main.c        ****     
 591              		.loc 1 148 0 is_stmt 1
 592 0044 0020     		movs	r0, #0
 593 0046 FFF7FEFF 		bl	I2C_RTC_MasterReadByte
 594              	.LVL56:
 595 004a 0C4B     		ldr	r3, .L55+4
 596 004c 9871     		strb	r0, [r3, #6]
 150:main.c        ****     
 597              		.loc 1 150 0
 598 004e FFF7FEFF 		bl	I2C_RTC_MasterSendStop
 599              	.LVL57:
 154:main.c        ****     {
 600              		.loc 1 154 0
 601 0052 0024     		movs	r4, #0
 602 0054 0BE0     		b	.L52
 603              	.LVL58:
 604              	.L53:
 156:main.c        ****         UART_PutString(testData);
 605              		.loc 1 156 0 discriminator 3
 606 0056 094B     		ldr	r3, .L55+4
 607 0058 1B5D     		ldrb	r3, [r3, r4]	@ zero_extendqisi2
 608 005a 2246     		mov	r2, r4
 609 005c 0849     		ldr	r1, .L55+8
 610 005e 6846     		mov	r0, sp
 611 0060 FFF7FEFF 		bl	sprintf
 612              	.LVL59:
 157:main.c        ****     }
 613              		.loc 1 157 0 discriminator 3
 614 0064 6846     		mov	r0, sp
 615 0066 FFF7FEFF 		bl	UART_PutString
 616              	.LVL60:
 154:main.c        ****     {
ARM GAS  C:\Users\Arold\AppData\Local\Temp\cciKFLGf.s 			page 17


 617              		.loc 1 154 0 discriminator 3
 618 006a 0134     		adds	r4, r4, #1
 619              	.LVL61:
 620 006c E4B2     		uxtb	r4, r4
 621              	.LVL62:
 622              	.L52:
 154:main.c        ****     {
 623              		.loc 1 154 0 is_stmt 0 discriminator 1
 624 006e 062C     		cmp	r4, #6
 625 0070 F1D9     		bls	.L53
 160:main.c        **** 
 626              		.loc 1 160 0 is_stmt 1
 627 0072 12B0     		add	sp, sp, #72
 628              		.cfi_def_cfa_offset 8
 629              		@ sp needed
 630 0074 10BD     		pop	{r4, pc}
 631              	.LVL63:
 632              	.L56:
 633 0076 00BF     		.align	2
 634              	.L55:
 635 0078 4C010000 		.word	.LC9
 636 007c 00000000 		.word	rtc_data
 637 0080 60010000 		.word	.LC10
 638              		.cfi_endproc
 639              	.LFE68:
 640              		.size	real_Time_Clock, .-real_Time_Clock
 641              		.global	OneWireVal
 642              		.global	window_position
 643              		.global	window_position_index
 644              		.global	room_temp
 645              		.comm	rtc_data,7,4
 646              		.section	.rodata
 647              		.align	2
 648              		.set	.LANCHOR2,. + 0
 649              	.LC8:
 650 0000 2A2A2A47 		.ascii	"***Green House Project*** \012\015\000"
 650      7265656E 
 650      20486F75 
 650      73652050 
 650      726F6A65 
 651 001d 00000000 		.space	21
 651      00000000 
 651      00000000 
 651      00000000 
 651      00000000 
 652              		.data
 653              		.align	2
 654              		.set	.LANCHOR1,. + 0
 655              		.type	window_position, %object
 656              		.size	window_position, 12
 657              	window_position:
 658 0000 8303     		.short	899
 659 0002 2705     		.short	1319
 660 0004 CB06     		.short	1739
 661 0006 6F08     		.short	2159
 662 0008 130A     		.short	2579
 663 000a B70B     		.short	2999
ARM GAS  C:\Users\Arold\AppData\Local\Temp\cciKFLGf.s 			page 18


 664              		.type	actualPosition.6791, %object
 665              		.size	actualPosition.6791, 2
 666              	actualPosition.6791:
 667 000c 8303     		.short	899
 668              		.section	.rodata.str1.4,"aMS",%progbits,1
 669              		.align	2
 670              	.LC0:
 671 0000 2054656D 		.ascii	" Temp One wire = %u \015\012\000"
 671      70204F6E 
 671      65207769 
 671      7265203D 
 671      20257520 
 672 0017 00       		.space	1
 673              	.LC1:
 674 0018 53657474 		.ascii	"Setting the current time for the device\015\012\000"
 674      696E6720 
 674      74686520 
 674      63757272 
 674      656E7420 
 675 0042 0000     		.space	2
 676              	.LC2:
 677 0044 53657474 		.ascii	"Setting the current day for the device\015\012\000"
 677      696E6720 
 677      74686520 
 677      63757272 
 677      656E7420 
 678 006d 000000   		.space	3
 679              	.LC3:
 680 0070 53656E64 		.ascii	"Sending out the current device time\015\012\000"
 680      696E6720 
 680      6F757420 
 680      74686520 
 680      63757272 
 681 0096 0000     		.space	2
 682              	.LC4:
 683 0098 53656E64 		.ascii	"Sending out the current device day\015\012\000"
 683      696E6720 
 683      6F757420 
 683      74686520 
 683      63757272 
 684 00bd 000000   		.space	3
 685              	.LC5:
 686 00c0 47726565 		.ascii	"GreenHouse controller 0.1, developed by Yameni Glee"
 686      6E486F75 
 686      73652063 
 686      6F6E7472 
 686      6F6C6C65 
 687 00f3 6E20616E 		.ascii	"n and Ndassi Harold\015\012\000"
 687      64204E64 
 687      61737369 
 687      20486172 
 687      6F6C640D 
 688 0109 000000   		.space	3
 689              	.LC6:
 690 010c 53656E64 		.ascii	"Sending all saved data...\015\012\000"
 690      696E6720 
 690      616C6C20 
ARM GAS  C:\Users\Arold\AppData\Local\Temp\cciKFLGf.s 			page 19


 690      73617665 
 690      64206461 
 691              	.LC7:
 692 0128 436C6561 		.ascii	"Clearing the logging memory...\015\012\000"
 692      72696E67 
 692      20746865 
 692      206C6F67 
 692      67696E67 
 693 0149 000000   		.space	3
 694              	.LC9:
 695 014c 456E646C 		.ascii	"Endless loop: %d\015\012\000"
 695      65737320 
 695      6C6F6F70 
 695      3A202564 
 695      0D0A00
 696 015f 00       		.space	1
 697              	.LC10:
 698 0160 42797465 		.ascii	"Byte %d : %d\015\012\000"
 698      20256420 
 698      3A202564 
 698      0D0A00
 699              		.bss
 700              		.align	2
 701              		.set	.LANCHOR0,. + 0
 702              		.type	OneWireVal, %object
 703              		.size	OneWireVal, 4
 704              	OneWireVal:
 705 0000 00000000 		.space	4
 706              		.type	old_char.6783, %object
 707              		.size	old_char.6783, 1
 708              	old_char.6783:
 709 0004 00       		.space	1
 710              		.type	window_position_index, %object
 711              		.size	window_position_index, 1
 712              	window_position_index:
 713 0005 00       		.space	1
 714              		.type	room_temp, %object
 715              		.size	room_temp, 1
 716              	room_temp:
 717 0006 00       		.space	1
 718              		.text
 719              	.Letext0:
 720              		.file 2 "c:\\program files (x86)\\cypress\\psoc creator\\4.4\\psoc creator\\import\\gnu\\arm\\5.4.
 721              		.file 3 "c:\\program files (x86)\\cypress\\psoc creator\\4.4\\psoc creator\\import\\gnu\\arm\\5.4.
 722              		.file 4 "Generated_Source\\PSoC5/cytypes.h"
 723              		.file 5 "Generated_Source\\PSoC5/core_cm3.h"
 724              		.file 6 "./OneWireLab.h"
 725              		.file 7 "c:\\program files (x86)\\cypress\\psoc creator\\4.4\\psoc creator\\import\\gnu\\arm\\5.4.
 726              		.file 8 "Generated_Source\\PSoC5/UART.h"
 727              		.file 9 "Generated_Source\\PSoC5/isr_UART.h"
 728              		.file 10 "Generated_Source\\PSoC5/PWM.h"
 729              		.file 11 "Generated_Source\\PSoC5/Timer.h"
 730              		.file 12 "Generated_Source\\PSoC5/isr_Timer.h"
 731              		.file 13 "Generated_Source\\PSoC5/isr_PWM.h"
 732              		.file 14 "Generated_Source\\PSoC5/I2C_RTC.h"
 733              		.file 15 "Generated_Source\\PSoC5/LED_Heating.h"