ARM GAS  C:\Users\Arold\AppData\Local\Temp\ccVPjYCk.s 			page 1


   1              		.syntax unified
   2              		.cpu cortex-m3
   3              		.fpu softvfp
   4              		.eabi_attribute 20, 1
   5              		.eabi_attribute 21, 1
   6              		.eabi_attribute 23, 3
   7              		.eabi_attribute 24, 1
   8              		.eabi_attribute 25, 1
   9              		.eabi_attribute 26, 1
  10              		.eabi_attribute 30, 1
  11              		.eabi_attribute 34, 1
  12              		.eabi_attribute 18, 4
  13              		.thumb
  14              		.syntax unified
  15              		.file	"OneWireLab.c"
  16              		.text
  17              	.Ltext0:
  18              		.cfi_sections	.debug_frame
  19              		.section	.text.OW_Reset,"ax",%progbits
  20              		.align	2
  21              		.global	OW_Reset
  22              		.thumb
  23              		.thumb_func
  24              		.type	OW_Reset, %function
  25              	OW_Reset:
  26              	.LFB66:
  27              		.file 1 "OneWireLab.c"
   1:OneWireLab.c  **** /* ========================================
   2:OneWireLab.c  ****  *
   3:OneWireLab.c  ****  * Copyright YOUR COMPANY, THE YEAR
   4:OneWireLab.c  ****  * All Rights Reserved
   5:OneWireLab.c  ****  * UNPUBLISHED, LICENSED SOFTWARE.
   6:OneWireLab.c  ****  *
   7:OneWireLab.c  ****  * CONFIDENTIAL AND PROPRIETARY INFORMATION
   8:OneWireLab.c  ****  * WHICH IS THE PROPERTY OF your company.
   9:OneWireLab.c  ****  *
  10:OneWireLab.c  ****  * ========================================
  11:OneWireLab.c  **** */
  12:OneWireLab.c  **** 
  13:OneWireLab.c  **** #include <project.h>
  14:OneWireLab.c  **** #include "OneWireLab.h"
  15:OneWireLab.c  **** #include "stdio.h"
  16:OneWireLab.c  **** 
  17:OneWireLab.c  **** 
  18:OneWireLab.c  **** #define RESET_PULSE 480
  19:OneWireLab.c  **** #define PRESENCE_PULSE 70
  20:OneWireLab.c  **** #define END_SLOT 410
  21:OneWireLab.c  **** #define TIME_SLOT 60
  22:OneWireLab.c  **** #define RECOVERY_TIME 10
  23:OneWireLab.c  **** #define WRITE_0_SLOT 60
  24:OneWireLab.c  **** #define WRITE_1_SLOT 10
  25:OneWireLab.c  **** #define READ_INIT_DELAY 6
  26:OneWireLab.c  **** #define READ_VALID_DELAY 6
  27:OneWireLab.c  **** 
  28:OneWireLab.c  **** #define SKIP_ROM 0xCC
  29:OneWireLab.c  **** #define WRITE_SCRPAD 0x4E
  30:OneWireLab.c  **** #define RESOL_12BIT 0x7F
ARM GAS  C:\Users\Arold\AppData\Local\Temp\ccVPjYCk.s 			page 2


  31:OneWireLab.c  **** #define START_CONVERT 0x44
  32:OneWireLab.c  **** #define READ_SCRPAD 0xBE
  33:OneWireLab.c  **** 
  34:OneWireLab.c  **** 
  35:OneWireLab.c  **** /* Variable diclaration */ 
  36:OneWireLab.c  **** float32 OneWire1_sum = 0.0;
  37:OneWireLab.c  **** float32 OneWire2_sum = 0.0;
  38:OneWireLab.c  **** int OneWire1_cnt = 0;
  39:OneWireLab.c  **** int OneWire2_cnt = 0;
  40:OneWireLab.c  **** float temp1_res = 0.0;
  41:OneWireLab.c  **** float temp2_res = 0.0;
  42:OneWireLab.c  **** int i;
  43:OneWireLab.c  **** int16_t temp1x16 ;
  44:OneWireLab.c  **** int16_t temp2x16 ;
  45:OneWireLab.c  **** char scratchpad1[10];
  46:OneWireLab.c  **** char scratchpad2[10];
  47:OneWireLab.c  **** int temp_lsb1,temp_msb1;
  48:OneWireLab.c  **** int temp_lsb2,temp_msb2;
  49:OneWireLab.c  **** 
  50:OneWireLab.c  **** 
  51:OneWireLab.c  **** void OneWire_start(){
  52:OneWireLab.c  ****     /*One Wire */
  53:OneWireLab.c  ****     OW_Reset();
  54:OneWireLab.c  ****     /* As only single sensor is present in channel-Skip command */
  55:OneWireLab.c  ****     OW_Write_Byte(SKIP_ROM);
  56:OneWireLab.c  ****     /*Write Scratch Pad command*/
  57:OneWireLab.c  ****     OW_Write_Byte(WRITE_SCRPAD);
  58:OneWireLab.c  ****     
  59:OneWireLab.c  ****     /* Alarm registers are unused, Writing Random values*/
  60:OneWireLab.c  ****     /*TH*/
  61:OneWireLab.c  ****     OW_Write_Byte(0x55);
  62:OneWireLab.c  ****     /*TL*/
  63:OneWireLab.c  ****     OW_Write_Byte(0xA2);
  64:OneWireLab.c  ****     /* Config(resoluion)7F- 12 bit resolution */
  65:OneWireLab.c  ****     OW_Write_Byte(RESOL_12BIT);
  66:OneWireLab.c  ****     
  67:OneWireLab.c  **** /* For the 2nd 1-Wire */
  68:OneWireLab.c  ****     /*One Wire */
  69:OneWireLab.c  **** //    OW2_Reset();
  70:OneWireLab.c  **** //    /* As only single sensor is present in channel-Skip command */
  71:OneWireLab.c  **** //    OW2_Write_Byte(SKIP_ROM);
  72:OneWireLab.c  **** //    /*Write Scratch Pad command*/
  73:OneWireLab.c  **** //    OW2_Write_Byte(WRITE_SCRPAD);
  74:OneWireLab.c  **** //    
  75:OneWireLab.c  **** //    /* Alarm registers are unused, Writing Random values*/
  76:OneWireLab.c  **** //    /*TH*/
  77:OneWireLab.c  **** //    OW2_Write_Byte(0x55);
  78:OneWireLab.c  **** //    /*TL*/
  79:OneWireLab.c  **** //    OW2_Write_Byte(0xA2);
  80:OneWireLab.c  **** //    /* Config(resoluion)7F- 12 bit resolution */
  81:OneWireLab.c  **** //    OW2_Write_Byte(RESOL_12BIT);
  82:OneWireLab.c  ****  
  83:OneWireLab.c  ****     
  84:OneWireLab.c  **** }
  85:OneWireLab.c  **** 
  86:OneWireLab.c  **** float OneWire_read_data(){
  87:OneWireLab.c  ****        OW_Reset();
ARM GAS  C:\Users\Arold\AppData\Local\Temp\ccVPjYCk.s 			page 3


  88:OneWireLab.c  ****        /*Skip address check command */
  89:OneWireLab.c  ****        OW_Write_Byte(SKIP_ROM); 
  90:OneWireLab.c  ****        /* Start Convert*/
  91:OneWireLab.c  ****        OW_Write_Byte(START_CONVERT);
  92:OneWireLab.c  ****     
  93:OneWireLab.c  ****        /* Wait until conversion completes */
  94:OneWireLab.c  ****        CyDelayUs(110);
  95:OneWireLab.c  ****        OW_Reset();
  96:OneWireLab.c  ****        
  97:OneWireLab.c  ****        /*Skip address check command */
  98:OneWireLab.c  ****        OW_Write_Byte(SKIP_ROM);
  99:OneWireLab.c  ****        /*Read Scratch Pad command*/
 100:OneWireLab.c  ****        OW_Write_Byte(READ_SCRPAD);
 101:OneWireLab.c  ****     
 102:OneWireLab.c  **** /* For the 2nd 1-Wire */
 103:OneWireLab.c  **** //       OW2_Reset();
 104:OneWireLab.c  **** //       /*Skip address check command */
 105:OneWireLab.c  **** //       OW2_Write_Byte(SKIP_ROM); 
 106:OneWireLab.c  **** //       /* Start Convert*/
 107:OneWireLab.c  **** //       OW2_Write_Byte(START_CONVERT);
 108:OneWireLab.c  **** //    
 109:OneWireLab.c  **** //       /* Wait until conversion completes */
 110:OneWireLab.c  **** //       CyDelayUs(110);
 111:OneWireLab.c  **** //       OW2_Reset();
 112:OneWireLab.c  **** //       
 113:OneWireLab.c  **** //       /*Skip address check command */
 114:OneWireLab.c  **** //       OW2_Write_Byte(SKIP_ROM);
 115:OneWireLab.c  **** //       /*Read Scratch Pad command*/
 116:OneWireLab.c  **** //       OW2_Write_Byte(READ_SCRPAD);
 117:OneWireLab.c  **** //  
 118:OneWireLab.c  ****     
 119:OneWireLab.c  ****         /*Copy the scratpad from slave*/
 120:OneWireLab.c  ****         for( i=0;i<9;i++)
 121:OneWireLab.c  ****         {
 122:OneWireLab.c  ****         scratchpad1[i] = OW_Read_Byte();
 123:OneWireLab.c  ****        // scratchpad2[i] = OW2_Read_Byte();
 124:OneWireLab.c  ****         }
 125:OneWireLab.c  ****         temp_msb1 = scratchpad1[1] ; /*   S,   S,   S,   S,    S,  2^6,  2^5,  2^4 */
 126:OneWireLab.c  ****         temp_lsb1 = scratchpad1[0] ; /* 2^3, 2^2, 2^1, 2^0, 2^-1, 2^-2, 2^-3, 2^-4 */
 127:OneWireLab.c  ****         //temp_msb2 = scratchpad2[1] ; /*   S,   S,   S,   S,    S,  2^6,  2^5,  2^4 */
 128:OneWireLab.c  ****         //temp_lsb2 = scratchpad2[0] ; /* 2^3, 2^2, 2^1, 2^0, 2^-1, 2^-2, 2^-3, 2^-4 */
 129:OneWireLab.c  ****         temp1x16 = (temp_msb1 << 8) | temp_lsb1 ; /* make a int16_t from 2 bytes */
 130:OneWireLab.c  ****        // temp2x16 = (temp_msb2 << 8) | temp_lsb2 ; /* make a int16_t from 2 bytes */
 131:OneWireLab.c  ****         if (temp1x16 >= 0x800) //temperture is negative 
 132:OneWireLab.c  ****         {
 133:OneWireLab.c  ****             /* Tow's complement for reading negative temperatue */
 134:OneWireLab.c  ****             temp1x16 = (~temp1x16)+1;
 135:OneWireLab.c  ****             temp1x16 = ((-1)*temp1x16);
 136:OneWireLab.c  ****         }
 137:OneWireLab.c  **** //        if (temp2x16 >= 0x800) //temperture is negative 
 138:OneWireLab.c  **** //        {
 139:OneWireLab.c  **** //            /* Tow's complement for reading negative temperatue */
 140:OneWireLab.c  **** //            temp2x16 = (~temp2x16)+1;
 141:OneWireLab.c  **** //            temp2x16 = ((-1)*temp2x16);
 142:OneWireLab.c  **** //        }
 143:OneWireLab.c  ****         /* read the temperature with fraction */
 144:OneWireLab.c  ****         temp1_res = temp1x16 / 16.0;
ARM GAS  C:\Users\Arold\AppData\Local\Temp\ccVPjYCk.s 			page 4


 145:OneWireLab.c  ****         /* Sum of the samples */
 146:OneWireLab.c  ****         OneWire1_sum += temp1_res;
 147:OneWireLab.c  ****         /* Number of samples */
 148:OneWireLab.c  ****         OneWire1_cnt++;
 149:OneWireLab.c  ****         /* read the temperature with fraction */
 150:OneWireLab.c  ****         //temp2_res = temp2x16 / 16.0;
 151:OneWireLab.c  ****         /* Sum of the samples */
 152:OneWireLab.c  ****         //OneWire2_sum += temp2_res;
 153:OneWireLab.c  ****         /* Number of samples */
 154:OneWireLab.c  ****        // OneWire2_cnt++;   
 155:OneWireLab.c  ****         return OneWire1_sum ;
 156:OneWireLab.c  **** }
 157:OneWireLab.c  **** int OW_Reset(void)
 158:OneWireLab.c  **** {
  28              		.loc 1 158 0
  29              		.cfi_startproc
  30              		@ args = 0, pretend = 0, frame = 0
  31              		@ frame_needed = 0, uses_anonymous_args = 0
  32 0000 10B5     		push	{r4, lr}
  33              		.cfi_def_cfa_offset 8
  34              		.cfi_offset 4, -8
  35              		.cfi_offset 14, -4
 159:OneWireLab.c  **** int presence;
 160:OneWireLab.c  **** OneWirePin_Write(0); //pull DQ line low
  36              		.loc 1 160 0
  37 0002 0020     		movs	r0, #0
  38 0004 FFF7FEFF 		bl	OneWirePin_Write
  39              	.LVL0:
 161:OneWireLab.c  **** CyDelayUs(RESET_PULSE); // leave it low for 480us
  40              		.loc 1 161 0
  41 0008 4FF4F070 		mov	r0, #480
  42 000c FFF7FEFF 		bl	CyDelayUs
  43              	.LVL1:
 162:OneWireLab.c  **** OneWirePin_Write(1); // allow line to return high
  44              		.loc 1 162 0
  45 0010 0120     		movs	r0, #1
  46 0012 FFF7FEFF 		bl	OneWirePin_Write
  47              	.LVL2:
 163:OneWireLab.c  **** CyDelayUs(PRESENCE_PULSE); // wait for presence
  48              		.loc 1 163 0
  49 0016 4620     		movs	r0, #70
  50 0018 FFF7FEFF 		bl	CyDelayUs
  51              	.LVL3:
 164:OneWireLab.c  **** presence = OneWirePin_Read(); // get presence signal
  52              		.loc 1 164 0
  53 001c FFF7FEFF 		bl	OneWirePin_Read
  54              	.LVL4:
  55 0020 0446     		mov	r4, r0
  56              	.LVL5:
 165:OneWireLab.c  **** CyDelayUs(END_SLOT); // wait for end of timeslot
  57              		.loc 1 165 0
  58 0022 4FF4CD70 		mov	r0, #410
  59              	.LVL6:
  60 0026 FFF7FEFF 		bl	CyDelayUs
  61              	.LVL7:
 166:OneWireLab.c  **** return presence; // presence signal returned
 167:OneWireLab.c  **** } // 0=presence, 1 = no part
ARM GAS  C:\Users\Arold\AppData\Local\Temp\ccVPjYCk.s 			page 5


  62              		.loc 1 167 0
  63 002a 2046     		mov	r0, r4
  64 002c 10BD     		pop	{r4, pc}
  65              		.cfi_endproc
  66              	.LFE66:
  67              		.size	OW_Reset, .-OW_Reset
  68 002e 00BF     		.section	.text.OW_Write_Bit,"ax",%progbits
  69              		.align	2
  70              		.global	OW_Write_Bit
  71              		.thumb
  72              		.thumb_func
  73              		.type	OW_Write_Bit, %function
  74              	OW_Write_Bit:
  75              	.LFB67:
 168:OneWireLab.c  **** 
 169:OneWireLab.c  **** 
 170:OneWireLab.c  **** /* For the 2nd 1-Wire */
 171:OneWireLab.c  **** /*int OW2_Reset(void)
 172:OneWireLab.c  **** {
 173:OneWireLab.c  **** int presence;
 174:OneWireLab.c  **** OneWire_Pin2_Write(0); //pull DQ line low
 175:OneWireLab.c  **** CyDelayUs(RESET_PULSE); // leave it low for 480us
 176:OneWireLab.c  **** OneWire_Pin2_Write(1); // allow line to return high
 177:OneWireLab.c  **** CyDelayUs(PRESENCE_PULSE); // wait for presence
 178:OneWireLab.c  **** presence = OneWire_Pin2_Read(); // get presence signal
 179:OneWireLab.c  **** CyDelayUs(END_SLOT); // wait for end of timeslot
 180:OneWireLab.c  **** return presence; // presence signal returned
 181:OneWireLab.c  **** } // 0=presence, 1 = no part
 182:OneWireLab.c  **** */
 183:OneWireLab.c  **** 
 184:OneWireLab.c  **** void OW_Write_Bit(int bit)
 185:OneWireLab.c  **** {   
  76              		.loc 1 185 0
  77              		.cfi_startproc
  78              		@ args = 0, pretend = 0, frame = 0
  79              		@ frame_needed = 0, uses_anonymous_args = 0
  80              	.LVL8:
  81 0000 10B5     		push	{r4, lr}
  82              		.cfi_def_cfa_offset 8
  83              		.cfi_offset 4, -8
  84              		.cfi_offset 14, -4
  85 0002 0446     		mov	r4, r0
 186:OneWireLab.c  ****     
 187:OneWireLab.c  ****     /* Write is initiated from this step*/
 188:OneWireLab.c  ****     OneWirePin_Write(0); 
  86              		.loc 1 188 0
  87 0004 0020     		movs	r0, #0
  88              	.LVL9:
  89 0006 FFF7FEFF 		bl	OneWirePin_Write
  90              	.LVL10:
 189:OneWireLab.c  ****     
 190:OneWireLab.c  ****     // Write '0' bit
 191:OneWireLab.c  ****     if(bit==0)
  91              		.loc 1 191 0
  92 000a 34B9     		cbnz	r4, .L4
 192:OneWireLab.c  ****     {
 193:OneWireLab.c  ****         /* Minimum 60us for logic_0 */
ARM GAS  C:\Users\Arold\AppData\Local\Temp\ccVPjYCk.s 			page 6


 194:OneWireLab.c  ****         CyDelayUs(WRITE_0_SLOT);
  93              		.loc 1 194 0
  94 000c 3C20     		movs	r0, #60
  95 000e FFF7FEFF 		bl	CyDelayUs
  96              	.LVL11:
 195:OneWireLab.c  ****         // Releases the bus
 196:OneWireLab.c  ****        OneWirePin_Write(1);
  97              		.loc 1 196 0
  98 0012 0120     		movs	r0, #1
  99 0014 FFF7FEFF 		bl	OneWirePin_Write
 100              	.LVL12:
 101 0018 08E0     		b	.L5
 102              	.L4:
 197:OneWireLab.c  ****     }
 198:OneWireLab.c  ****     // Write '1' bit
 199:OneWireLab.c  ****     else
 200:OneWireLab.c  ****     {
 201:OneWireLab.c  ****         /* Release to 1 before 15us for logic_1 */
 202:OneWireLab.c  ****         CyDelayUs(WRITE_1_SLOT);
 103              		.loc 1 202 0
 104 001a 0A20     		movs	r0, #10
 105 001c FFF7FEFF 		bl	CyDelayUs
 106              	.LVL13:
 203:OneWireLab.c  ****         // Releases the bus
 204:OneWireLab.c  ****         OneWirePin_Write(1);
 107              		.loc 1 204 0
 108 0020 0120     		movs	r0, #1
 109 0022 FFF7FEFF 		bl	OneWirePin_Write
 110              	.LVL14:
 205:OneWireLab.c  ****         // Complete the time slot
 206:OneWireLab.c  ****         CyDelayUs(50);
 111              		.loc 1 206 0
 112 0026 3220     		movs	r0, #50
 113 0028 FFF7FEFF 		bl	CyDelayUs
 114              	.LVL15:
 115              	.L5:
 207:OneWireLab.c  ****        
 208:OneWireLab.c  ****     }
 209:OneWireLab.c  ****      
 210:OneWireLab.c  ****     /* Minimum recovery time 1us between write steps is ncessary, 10us is used */
 211:OneWireLab.c  ****     CyDelayUs(RECOVERY_TIME);
 116              		.loc 1 211 0
 117 002c 0A20     		movs	r0, #10
 118 002e FFF7FEFF 		bl	CyDelayUs
 119              	.LVL16:
 120 0032 10BD     		pop	{r4, pc}
 121              		.cfi_endproc
 122              	.LFE67:
 123              		.size	OW_Write_Bit, .-OW_Write_Bit
 124              		.section	.text.OW_Read_Bit,"ax",%progbits
 125              		.align	2
 126              		.global	OW_Read_Bit
 127              		.thumb
 128              		.thumb_func
 129              		.type	OW_Read_Bit, %function
 130              	OW_Read_Bit:
 131              	.LFB68:
ARM GAS  C:\Users\Arold\AppData\Local\Temp\ccVPjYCk.s 			page 7


 212:OneWireLab.c  **** }
 213:OneWireLab.c  **** 
 214:OneWireLab.c  **** ///* For the 2nd 1-Wire */
 215:OneWireLab.c  **** //void OW2_Write_Bit(int bit)
 216:OneWireLab.c  **** //{
 217:OneWireLab.c  **** //    /* Write is initiated from this step*/
 218:OneWireLab.c  **** //    OneWirePin_Write(0); 
 219:OneWireLab.c  **** //    
 220:OneWireLab.c  **** //    // Write '0' bit
 221:OneWireLab.c  **** //    if(bit==0)
 222:OneWireLab.c  **** //    {
 223:OneWireLab.c  **** //        /* Minimum 60us for logic_0 */
 224:OneWireLab.c  **** //        CyDelayUs(WRITE_0_SLOT);
 225:OneWireLab.c  **** //        // Releases the bus
 226:OneWireLab.c  **** //       OneWire_Pin2_Write(1);
 227:OneWireLab.c  **** //    }
 228:OneWireLab.c  **** //    // Write '1' bit
 229:OneWireLab.c  **** //    else
 230:OneWireLab.c  **** //    {
 231:OneWireLab.c  **** //        /* Release to 1 before 15us for logic_1 */
 232:OneWireLab.c  **** //        CyDelayUs(WRITE_1_SLOT);
 233:OneWireLab.c  **** //        // Releases the bus
 234:OneWireLab.c  **** //        OneWire_Pin2_Write(1);
 235:OneWireLab.c  **** //        // Complete the time slot
 236:OneWireLab.c  **** //        CyDelayUs(50);
 237:OneWireLab.c  **** //       
 238:OneWireLab.c  **** //    }
 239:OneWireLab.c  **** //     
 240:OneWireLab.c  **** //    /* Minimum recovery time 1us between write steps is ncessary, 10us is used */
 241:OneWireLab.c  **** //    CyDelayUs(RECOVERY_TIME);
 242:OneWireLab.c  **** //}
 243:OneWireLab.c  **** 
 244:OneWireLab.c  **** 
 245:OneWireLab.c  **** 
 246:OneWireLab.c  **** 
 247:OneWireLab.c  **** int OW_Read_Bit(void)
 248:OneWireLab.c  **** {
 132              		.loc 1 248 0
 133              		.cfi_startproc
 134              		@ args = 0, pretend = 0, frame = 0
 135              		@ frame_needed = 0, uses_anonymous_args = 0
 136 0000 10B5     		push	{r4, lr}
 137              		.cfi_def_cfa_offset 8
 138              		.cfi_offset 4, -8
 139              		.cfi_offset 14, -4
 249:OneWireLab.c  ****     int result;
 250:OneWireLab.c  ****     /* Initiate read by pulling line low */
 251:OneWireLab.c  ****     OneWirePin_Write(0);
 140              		.loc 1 251 0
 141 0002 0020     		movs	r0, #0
 142 0004 FFF7FEFF 		bl	OneWirePin_Write
 143              	.LVL17:
 252:OneWireLab.c  ****     OneWirePin_Write(1);
 144              		.loc 1 252 0
 145 0008 0120     		movs	r0, #1
 146 000a FFF7FEFF 		bl	OneWirePin_Write
 147              	.LVL18:
ARM GAS  C:\Users\Arold\AppData\Local\Temp\ccVPjYCk.s 			page 8


 253:OneWireLab.c  ****     /* Data valid before 15us, should be sampled before that*/
 254:OneWireLab.c  ****     result = OneWirePin_Read();
 148              		.loc 1 254 0
 149 000e FFF7FEFF 		bl	OneWirePin_Read
 150              	.LVL19:
 151 0012 0446     		mov	r4, r0
 152              	.LVL20:
 255:OneWireLab.c  ****     // Complete the time slot and 10us recovery
 256:OneWireLab.c  ****     CyDelayUs(55);
 153              		.loc 1 256 0
 154 0014 3720     		movs	r0, #55
 155              	.LVL21:
 156 0016 FFF7FEFF 		bl	CyDelayUs
 157              	.LVL22:
 257:OneWireLab.c  ****     // Sample the bit value from the slave
 258:OneWireLab.c  ****     return result;
 259:OneWireLab.c  **** }
 158              		.loc 1 259 0
 159 001a 2046     		mov	r0, r4
 160 001c 10BD     		pop	{r4, pc}
 161              		.cfi_endproc
 162              	.LFE68:
 163              		.size	OW_Read_Bit, .-OW_Read_Bit
 164 001e 00BF     		.section	.text.OW_Write_Byte,"ax",%progbits
 165              		.align	2
 166              		.global	OW_Write_Byte
 167              		.thumb
 168              		.thumb_func
 169              		.type	OW_Write_Byte, %function
 170              	OW_Write_Byte:
 171              	.LFB69:
 260:OneWireLab.c  **** 
 261:OneWireLab.c  **** /* For the 2nd 1-Wire */
 262:OneWireLab.c  **** //int OW2_Read_Bit(void)
 263:OneWireLab.c  **** //{
 264:OneWireLab.c  **** //    int result;
 265:OneWireLab.c  **** //    /* Initiate read by pulling line low */
 266:OneWireLab.c  **** //    OneWire_Pin2_Write(0);
 267:OneWireLab.c  **** //
 268:OneWireLab.c  **** //    OneWire_Pin2_Write(1);
 269:OneWireLab.c  **** //    /* Data valid before 15us, should be sampled before that*/
 270:OneWireLab.c  **** //    result = OneWire_Pin2_Read();
 271:OneWireLab.c  **** //    // Complete the time slot and 10us recovery
 272:OneWireLab.c  **** //    CyDelayUs(55);
 273:OneWireLab.c  **** //    // Sample the bit value from the slave
 274:OneWireLab.c  **** //    return result;
 275:OneWireLab.c  **** //}
 276:OneWireLab.c  **** 
 277:OneWireLab.c  **** //-----------------------------------------------------------------------------
 278:OneWireLab.c  **** // Write 1-Wire data byte
 279:OneWireLab.c  **** //
 280:OneWireLab.c  **** void OW_Write_Byte(int data)
 281:OneWireLab.c  **** {
 172              		.loc 1 281 0
 173              		.cfi_startproc
 174              		@ args = 0, pretend = 0, frame = 0
 175              		@ frame_needed = 0, uses_anonymous_args = 0
ARM GAS  C:\Users\Arold\AppData\Local\Temp\ccVPjYCk.s 			page 9


 176              	.LVL23:
 177 0000 38B5     		push	{r3, r4, r5, lr}
 178              		.cfi_def_cfa_offset 16
 179              		.cfi_offset 3, -16
 180              		.cfi_offset 4, -12
 181              		.cfi_offset 5, -8
 182              		.cfi_offset 14, -4
 183 0002 0546     		mov	r5, r0
 184              	.LVL24:
 282:OneWireLab.c  ****         int loop;
 283:OneWireLab.c  **** 
 284:OneWireLab.c  ****         // Loop to write each bit in the byte, LS-bit first
 285:OneWireLab.c  ****         for (loop = 0; loop < 8; loop++)
 185              		.loc 1 285 0
 186 0004 0024     		movs	r4, #0
 187 0006 05E0     		b	.L10
 188              	.LVL25:
 189              	.L11:
 286:OneWireLab.c  ****         {
 287:OneWireLab.c  ****                 OW_Write_Bit(data & 0x01);
 190              		.loc 1 287 0 discriminator 3
 191 0008 05F00100 		and	r0, r5, #1
 192 000c FFF7FEFF 		bl	OW_Write_Bit
 193              	.LVL26:
 288:OneWireLab.c  **** 
 289:OneWireLab.c  ****                 // shift the data byte for the next bit
 290:OneWireLab.c  ****                 data >>= 1;
 194              		.loc 1 290 0 discriminator 3
 195 0010 6D10     		asrs	r5, r5, #1
 196              	.LVL27:
 285:OneWireLab.c  ****         {
 197              		.loc 1 285 0 discriminator 3
 198 0012 0134     		adds	r4, r4, #1
 199              	.LVL28:
 200              	.L10:
 285:OneWireLab.c  ****         {
 201              		.loc 1 285 0 is_stmt 0 discriminator 1
 202 0014 072C     		cmp	r4, #7
 203 0016 F7DD     		ble	.L11
 291:OneWireLab.c  ****         }
 292:OneWireLab.c  **** }
 204              		.loc 1 292 0 is_stmt 1
 205 0018 38BD     		pop	{r3, r4, r5, pc}
 206              		.cfi_endproc
 207              	.LFE69:
 208              		.size	OW_Write_Byte, .-OW_Write_Byte
 209 001a 00BF     		.section	.text.OneWire_start,"ax",%progbits
 210              		.align	2
 211              		.global	OneWire_start
 212              		.thumb
 213              		.thumb_func
 214              		.type	OneWire_start, %function
 215              	OneWire_start:
 216              	.LFB64:
  51:OneWireLab.c  ****     /*One Wire */
 217              		.loc 1 51 0
 218              		.cfi_startproc
ARM GAS  C:\Users\Arold\AppData\Local\Temp\ccVPjYCk.s 			page 10


 219              		@ args = 0, pretend = 0, frame = 0
 220              		@ frame_needed = 0, uses_anonymous_args = 0
 221 0000 08B5     		push	{r3, lr}
 222              		.cfi_def_cfa_offset 8
 223              		.cfi_offset 3, -8
 224              		.cfi_offset 14, -4
  53:OneWireLab.c  ****     /* As only single sensor is present in channel-Skip command */
 225              		.loc 1 53 0
 226 0002 FFF7FEFF 		bl	OW_Reset
 227              	.LVL29:
  55:OneWireLab.c  ****     /*Write Scratch Pad command*/
 228              		.loc 1 55 0
 229 0006 CC20     		movs	r0, #204
 230 0008 FFF7FEFF 		bl	OW_Write_Byte
 231              	.LVL30:
  57:OneWireLab.c  ****     
 232              		.loc 1 57 0
 233 000c 4E20     		movs	r0, #78
 234 000e FFF7FEFF 		bl	OW_Write_Byte
 235              	.LVL31:
  61:OneWireLab.c  ****     /*TL*/
 236              		.loc 1 61 0
 237 0012 5520     		movs	r0, #85
 238 0014 FFF7FEFF 		bl	OW_Write_Byte
 239              	.LVL32:
  63:OneWireLab.c  ****     /* Config(resoluion)7F- 12 bit resolution */
 240              		.loc 1 63 0
 241 0018 A220     		movs	r0, #162
 242 001a FFF7FEFF 		bl	OW_Write_Byte
 243              	.LVL33:
  65:OneWireLab.c  ****     
 244              		.loc 1 65 0
 245 001e 7F20     		movs	r0, #127
 246 0020 FFF7FEFF 		bl	OW_Write_Byte
 247              	.LVL34:
 248 0024 08BD     		pop	{r3, pc}
 249              		.cfi_endproc
 250              	.LFE64:
 251              		.size	OneWire_start, .-OneWire_start
 252 0026 00BF     		.section	.text.OW_Read_Byte,"ax",%progbits
 253              		.align	2
 254              		.global	OW_Read_Byte
 255              		.thumb
 256              		.thumb_func
 257              		.type	OW_Read_Byte, %function
 258              	OW_Read_Byte:
 259              	.LFB70:
 293:OneWireLab.c  **** 
 294:OneWireLab.c  **** /* For the 2nd 1-Wire */
 295:OneWireLab.c  **** //void OW2_Write_Byte(int data)
 296:OneWireLab.c  **** //{
 297:OneWireLab.c  **** //        int loop;
 298:OneWireLab.c  **** //
 299:OneWireLab.c  **** //        // Loop to write each bit in the byte, LS-bit first
 300:OneWireLab.c  **** //        for (loop = 0; loop < 8; loop++)
 301:OneWireLab.c  **** //        {
 302:OneWireLab.c  **** //                OW2_Write_Bit(data & 0x01);
ARM GAS  C:\Users\Arold\AppData\Local\Temp\ccVPjYCk.s 			page 11


 303:OneWireLab.c  **** //
 304:OneWireLab.c  **** //                // shift the data byte for the next bit
 305:OneWireLab.c  **** //                data >>= 1;
 306:OneWireLab.c  **** //        }
 307:OneWireLab.c  **** //}
 308:OneWireLab.c  **** 
 309:OneWireLab.c  **** //-----------------------------------------------------------------------------
 310:OneWireLab.c  **** // Read 1-Wire data byte and return it
 311:OneWireLab.c  **** //
 312:OneWireLab.c  **** int OW_Read_Byte(void)
 313:OneWireLab.c  **** {
 260              		.loc 1 313 0
 261              		.cfi_startproc
 262              		@ args = 0, pretend = 0, frame = 0
 263              		@ frame_needed = 0, uses_anonymous_args = 0
 264 0000 38B5     		push	{r3, r4, r5, lr}
 265              		.cfi_def_cfa_offset 16
 266              		.cfi_offset 3, -16
 267              		.cfi_offset 4, -12
 268              		.cfi_offset 5, -8
 269              		.cfi_offset 14, -4
 270              	.LVL35:
 314:OneWireLab.c  ****         int loop, result=0;
 271              		.loc 1 314 0
 272 0002 0024     		movs	r4, #0
 315:OneWireLab.c  **** 
 316:OneWireLab.c  ****         for (loop = 0; loop < 8; loop++)
 273              		.loc 1 316 0
 274 0004 2546     		mov	r5, r4
 275 0006 06E0     		b	.L16
 276              	.LVL36:
 277              	.L18:
 317:OneWireLab.c  ****         {
 318:OneWireLab.c  ****                 // shift the result to get it ready for the next bit
 319:OneWireLab.c  ****                 result >>= 1;
 278              		.loc 1 319 0
 279 0008 6410     		asrs	r4, r4, #1
 280              	.LVL37:
 320:OneWireLab.c  **** 
 321:OneWireLab.c  ****                 // if result is one, then set MS bit
 322:OneWireLab.c  ****                 if (OW_Read_Bit())
 281              		.loc 1 322 0
 282 000a FFF7FEFF 		bl	OW_Read_Bit
 283              	.LVL38:
 284 000e 08B1     		cbz	r0, .L17
 323:OneWireLab.c  ****                         result |= 0x80;
 285              		.loc 1 323 0
 286 0010 44F08004 		orr	r4, r4, #128
 287              	.LVL39:
 288              	.L17:
 316:OneWireLab.c  ****         {
 289              		.loc 1 316 0 discriminator 2
 290 0014 0135     		adds	r5, r5, #1
 291              	.LVL40:
 292              	.L16:
 316:OneWireLab.c  ****         {
 293              		.loc 1 316 0 is_stmt 0 discriminator 1
ARM GAS  C:\Users\Arold\AppData\Local\Temp\ccVPjYCk.s 			page 12


 294 0016 072D     		cmp	r5, #7
 295 0018 F6DD     		ble	.L18
 324:OneWireLab.c  ****         }
 325:OneWireLab.c  ****         return result;
 326:OneWireLab.c  **** }
 296              		.loc 1 326 0 is_stmt 1
 297 001a 2046     		mov	r0, r4
 298 001c 38BD     		pop	{r3, r4, r5, pc}
 299              		.cfi_endproc
 300              	.LFE70:
 301              		.size	OW_Read_Byte, .-OW_Read_Byte
 302              		.global	__aeabi_i2d
 303              		.global	__aeabi_dmul
 304              		.global	__aeabi_d2f
 305              		.global	__aeabi_fadd
 306 001e 00BF     		.section	.text.OneWire_read_data,"ax",%progbits
 307              		.align	2
 308              		.global	OneWire_read_data
 309              		.thumb
 310              		.thumb_func
 311              		.type	OneWire_read_data, %function
 312              	OneWire_read_data:
 313              	.LFB65:
  86:OneWireLab.c  ****        OW_Reset();
 314              		.loc 1 86 0
 315              		.cfi_startproc
 316              		@ args = 0, pretend = 0, frame = 0
 317              		@ frame_needed = 0, uses_anonymous_args = 0
 318 0000 10B5     		push	{r4, lr}
 319              		.cfi_def_cfa_offset 8
 320              		.cfi_offset 4, -8
 321              		.cfi_offset 14, -4
  87:OneWireLab.c  ****        /*Skip address check command */
 322              		.loc 1 87 0
 323 0002 FFF7FEFF 		bl	OW_Reset
 324              	.LVL41:
  89:OneWireLab.c  ****        /* Start Convert*/
 325              		.loc 1 89 0
 326 0006 CC20     		movs	r0, #204
 327 0008 FFF7FEFF 		bl	OW_Write_Byte
 328              	.LVL42:
  91:OneWireLab.c  ****     
 329              		.loc 1 91 0
 330 000c 4420     		movs	r0, #68
 331 000e FFF7FEFF 		bl	OW_Write_Byte
 332              	.LVL43:
  94:OneWireLab.c  ****        OW_Reset();
 333              		.loc 1 94 0
 334 0012 6E20     		movs	r0, #110
 335 0014 FFF7FEFF 		bl	CyDelayUs
 336              	.LVL44:
  95:OneWireLab.c  ****        
 337              		.loc 1 95 0
 338 0018 FFF7FEFF 		bl	OW_Reset
 339              	.LVL45:
  98:OneWireLab.c  ****        /*Read Scratch Pad command*/
 340              		.loc 1 98 0
ARM GAS  C:\Users\Arold\AppData\Local\Temp\ccVPjYCk.s 			page 13


 341 001c CC20     		movs	r0, #204
 342 001e FFF7FEFF 		bl	OW_Write_Byte
 343              	.LVL46:
 100:OneWireLab.c  ****     
 344              		.loc 1 100 0
 345 0022 BE20     		movs	r0, #190
 346 0024 FFF7FEFF 		bl	OW_Write_Byte
 347              	.LVL47:
 120:OneWireLab.c  ****         {
 348              		.loc 1 120 0
 349 0028 0022     		movs	r2, #0
 350 002a 184B     		ldr	r3, .L25
 351 002c 1A60     		str	r2, [r3]
 352 002e 07E0     		b	.L21
 353              	.L22:
 122:OneWireLab.c  ****        // scratchpad2[i] = OW2_Read_Byte();
 354              		.loc 1 122 0 discriminator 3
 355 0030 FFF7FEFF 		bl	OW_Read_Byte
 356              	.LVL48:
 357 0034 164B     		ldr	r3, .L25+4
 358 0036 1855     		strb	r0, [r3, r4]
 120:OneWireLab.c  ****         {
 359              		.loc 1 120 0 discriminator 3
 360 0038 144A     		ldr	r2, .L25
 361 003a 1368     		ldr	r3, [r2]
 362 003c 0133     		adds	r3, r3, #1
 363 003e 1360     		str	r3, [r2]
 364              	.L21:
 120:OneWireLab.c  ****         {
 365              		.loc 1 120 0 is_stmt 0 discriminator 1
 366 0040 124B     		ldr	r3, .L25
 367 0042 1C68     		ldr	r4, [r3]
 368 0044 082C     		cmp	r4, #8
 369 0046 F3DD     		ble	.L22
 125:OneWireLab.c  ****         temp_lsb1 = scratchpad1[0] ; /* 2^3, 2^2, 2^1, 2^0, 2^-1, 2^-2, 2^-3, 2^-4 */
 370              		.loc 1 125 0 is_stmt 1
 371 0048 114B     		ldr	r3, .L25+4
 372 004a 5A78     		ldrb	r2, [r3, #1]	@ zero_extendqisi2
 373 004c 1149     		ldr	r1, .L25+8
 374 004e 0A60     		str	r2, [r1]
 126:OneWireLab.c  ****         //temp_msb2 = scratchpad2[1] ; /*   S,   S,   S,   S,    S,  2^6,  2^5,  2^4 */
 375              		.loc 1 126 0
 376 0050 1B78     		ldrb	r3, [r3]	@ zero_extendqisi2
 377 0052 1149     		ldr	r1, .L25+12
 378 0054 0B60     		str	r3, [r1]
 129:OneWireLab.c  ****        // temp2x16 = (temp_msb2 << 8) | temp_lsb2 ; /* make a int16_t from 2 bytes */
 379              		.loc 1 129 0
 380 0056 43EA0223 		orr	r3, r3, r2, lsl #8
 381 005a 1BB2     		sxth	r3, r3
 382 005c 0F4A     		ldr	r2, .L25+16
 383 005e 1380     		strh	r3, [r2]	@ movhi
 144:OneWireLab.c  ****         /* Sum of the samples */
 384              		.loc 1 144 0
 385 0060 0E4B     		ldr	r3, .L25+16
 386 0062 B3F90000 		ldrsh	r0, [r3]
 387 0066 FFF7FEFF 		bl	__aeabi_i2d
 388              	.LVL49:
ARM GAS  C:\Users\Arold\AppData\Local\Temp\ccVPjYCk.s 			page 14


 389 006a 0022     		movs	r2, #0
 390 006c 0C4B     		ldr	r3, .L25+20
 391 006e FFF7FEFF 		bl	__aeabi_dmul
 392              	.LVL50:
 393 0072 FFF7FEFF 		bl	__aeabi_d2f
 394              	.LVL51:
 395 0076 0B4C     		ldr	r4, .L25+24
 396 0078 2060     		str	r0, [r4]	@ float
 146:OneWireLab.c  ****         /* Number of samples */
 397              		.loc 1 146 0
 398 007a 6168     		ldr	r1, [r4, #4]	@ float
 399 007c FFF7FEFF 		bl	__aeabi_fadd
 400              	.LVL52:
 401 0080 6060     		str	r0, [r4, #4]	@ float
 148:OneWireLab.c  ****         /* read the temperature with fraction */
 402              		.loc 1 148 0
 403 0082 A368     		ldr	r3, [r4, #8]
 404 0084 0133     		adds	r3, r3, #1
 405 0086 A360     		str	r3, [r4, #8]
 156:OneWireLab.c  **** int OW_Reset(void)
 406              		.loc 1 156 0
 407 0088 10BD     		pop	{r4, pc}
 408              	.L26:
 409 008a 00BF     		.align	2
 410              	.L25:
 411 008c 00000000 		.word	i
 412 0090 00000000 		.word	scratchpad1
 413 0094 00000000 		.word	temp_msb1
 414 0098 00000000 		.word	temp_lsb1
 415 009c 00000000 		.word	temp1x16
 416 00a0 0000B03F 		.word	1068498944
 417 00a4 00000000 		.word	.LANCHOR0
 418              		.cfi_endproc
 419              	.LFE65:
 420              		.size	OneWire_read_data, .-OneWire_read_data
 421              		.comm	temp_msb2,4,4
 422              		.comm	temp_lsb2,4,4
 423              		.comm	temp_msb1,4,4
 424              		.comm	temp_lsb1,4,4
 425              		.comm	scratchpad2,10,4
 426              		.comm	scratchpad1,10,4
 427              		.comm	temp2x16,2,2
 428              		.comm	temp1x16,2,2
 429              		.comm	i,4,4
 430              		.global	temp2_res
 431              		.global	temp1_res
 432              		.global	OneWire2_cnt
 433              		.global	OneWire1_cnt
 434              		.global	OneWire2_sum
 435              		.global	OneWire1_sum
 436              		.bss
 437              		.align	2
 438              		.set	.LANCHOR0,. + 0
 439              		.type	temp1_res, %object
 440              		.size	temp1_res, 4
 441              	temp1_res:
 442 0000 00000000 		.space	4
ARM GAS  C:\Users\Arold\AppData\Local\Temp\ccVPjYCk.s 			page 15


 443              		.type	OneWire1_sum, %object
 444              		.size	OneWire1_sum, 4
 445              	OneWire1_sum:
 446 0004 00000000 		.space	4
 447              		.type	OneWire1_cnt, %object
 448              		.size	OneWire1_cnt, 4
 449              	OneWire1_cnt:
 450 0008 00000000 		.space	4
 451              		.type	temp2_res, %object
 452              		.size	temp2_res, 4
 453              	temp2_res:
 454 000c 00000000 		.space	4
 455              		.type	OneWire2_cnt, %object
 456              		.size	OneWire2_cnt, 4
 457              	OneWire2_cnt:
 458 0010 00000000 		.space	4
 459              		.type	OneWire2_sum, %object
 460              		.size	OneWire2_sum, 4
 461              	OneWire2_sum:
 462 0014 00000000 		.space	4
 463              		.text
 464              	.Letext0:
 465              		.file 2 "c:\\program files (x86)\\cypress\\psoc creator\\4.4\\psoc creator\\import\\gnu\\arm\\5.4.
 466              		.file 3 "c:\\program files (x86)\\cypress\\psoc creator\\4.4\\psoc creator\\import\\gnu\\arm\\5.4.
 467              		.file 4 "Generated_Source\\PSoC5/cytypes.h"
 468              		.file 5 "Generated_Source\\PSoC5/core_cm3.h"
 469              		.file 6 "Generated_Source\\PSoC5/OneWirePin.h"
 470              		.file 7 "Generated_Source\\PSoC5/CyLib.h"